(lp0
(lp1
I0
aS'e-  + hv ->  e-  + hv'
p2
aS'4.91*(10**-22)*(T_m**4.0)'
p3
aS'Abell et al 1997'
p4
aS'0-8000'
p5
aa(lp6
I1
aS'H   + e- ->  H-  + hv'
p7
aS'1.4*(10**-18)*(T_m**0.928)*exp(-T_m/16200.0)'
p8
aS'Galli D & Palla 1998'
p9
ag5
aa(lp10
I2
aS'H-  + H  ->  H2  + e-'
p11
aS'4.0*(10**-9)*(T_m**-0.17)'
p12
ag9
aS'0-300 '
p13
aa(lp14
I3
aS'H+  + H  ->  H2+ + hv'
p15
aS'10**(-19.38-(1.523*log10(T_m))+(1.118*((log10(T_m))**2))-(0.1269*((log10(T_m))**3)) )'
p16
aS'Glover & Abel 2008'
p17
ag5
aa(lp18
I4
aS'H2+ + H  ->  H2  + H+'
p19
aS'6.4*(10**-10)'
p20
ag9
ag5
aa(lp21
I5
aS'2H  + H  ->  H2  + H '
p22
aS'5.5*(10**-29)*(1.0/T_m)'
p23
aS'Palla, F., Salpeter, E. E., & Stahler, S. W. 1983'
p24
ag5
aa(lp25
I6
aS'H2  + H+ ->  H2+ + H '
p26
aS'3.0*(10**-10)*exp(-21050.0/T_m)'
p27
ag9
ag5
aa(lp28
I7
aS'H2  + e- ->  2H  + e-'
p29
aS'1.91*(10**-9)*(T_m**0.136)*exp(-53407.1/T_m)'
p30
aS'Trevian, C.S & Tennyson J.2002'
p31
ag5
aa(lp32
I8
aS'H2  + H  ->  2H  + H '
p33
aS'6.67*(10**-12)*(T_m**0.5)*exp(-(1.0+(63593.0/T_m)))'
p34
aS'Dove and Mandy 1986'
p35
ag5
aa(lp36
I9
aS'H-  + e- ->  H   + 2e-'
p37
aS'exp((-18.01849334)+(2.3608522*log(T_m))-(0.28274430*((log(T_m))**2))+(1.62331664*(10**-2)*(log(T_m))**3)-(3.36501203*(10**-2)*((log(T_m))**4))+(1.17832978*(10**-2)*((log(T_m))**5))-(1.65619470*(10**-3)*((log(T_m))**6))+(1.06827520*(10**-4)*((log(T_m))**7))-(2.63128581*(10**-6)*((log(T_m))**8)))'
p38
ag17
ag5
aa(lp39
I10
aS'H-  + H  ->  2H  + e-'
p40
aS'2.5634*(10**-9)*(T_m**1.78186)'
p41
ag17
ag5
aa(lp42
I11
aS'H-  + H+ ->  H   + H '
p43
aS'1.40*(10**-7)*((T_m/300.0)**-0.487)*exp(T_m/29300.0)'
p44
aS'Lepp,S. Stancil P.C., & Dalgarno 2002'
p45
ag5
aa(lp46
I12
aS'H-  + H+ ->  H2+ + e-'
p47
aS'6.9*(10**-9)*(T_m**-0.35)'
p48
ag17
ag5
aa(lp49
I13
aS'H2+ + e- ->  H   + H '
p50
aS'1.32*(10**-6)*(T_m**-0.76)'
p51
ag17
ag5
aa(lp52
I14
aS'H2+ + H- ->  H   + H2'
p53
aS'1.4*(10**-7)*((T_m/300.0)**-0.5)'
p54
ag17
ag5
aa(lp55
I15
aS'H2  + e- ->  H   + H-'
p56
aS'36.7*(T_m**-2.28)*exp(-47172.0/T_m)'
p57
aS'Capitelli, M., Coppola, C. M., Diomede, P., & Longo, S. 2007'
p58
ag5
aa(lp59
I16
aS'H-  + hv ->  H   + e-'
p60
aS'0.144*(T_r**2.13)*exp(-8650.0/T_r)'
p61
ag4
ag5
aa(lp62
I17
aS'H2+ + hv ->  H   + H+'
p63
aS'2.0*10*(T_r**1.59)*exp(-82000.0/T_r)'
p64
aS'Stancil et al 1994'
p65
ag5
aa(lp66
I18
aS'H2  + hv ->  H2+ + e-'
p67
aS'2.9*(10**2)*(T_r**1.56)*exp(-178500.0/T_r)'
p68
ag9
ag5
aa(lp69
I19
aS'H2+ + hv ->  2H+ + e-'
p70
aS'90*(T_r**1.48)*(exp(-335000.0/T_r))'
p71
ag9
ag5
aa(lp72
I20
aS'H2  + hv ->  H   + H '
p73
aS'1.13*(10**6)*(T_r**0.369)*exp(-140000.0/T_r)'
p74
aS'Glover, S.C.0 & Jappsen 2007'
p75
ag5
aa(lp76
I21
aS'D-  + hv ->  D   + e-'
p77
aS'1.1*(10**-1)*(T_r**2.13)*exp(-8823.0/T_r)'
p78
aS'Currently unknown'
p79
ag5
aa(lp80
I22
aS'HD+ + hv ->  D   + H+'
p81
aS'0.5*1.63*(10**7)*exp(-32400.0/T_r)'
p82
ag79
ag5
aa(lp83
I23
aS'HD+ + hv ->  H   + D+'
p84
ag82
ag79
ag5
aa(lp85
I24
aS'HD+ + hv ->  H+  + D+ + e'
p86
aS'90.0*(T_r**1.48)*exp(-335000.0/T_r)'
p87
ag79
ag5
aa(lp88
I25
aS'HD  + hv ->  HD+ + e-'
p89
aS'2.9*100*(T_r**1.56)*exp(-178500.0/T_r)'
p90
ag79
ag5
aa(lp91
I26
aS'D+  + e- ->  D   + hv'
p92
aS'3.6*(10**-12)*((T_m/300.0)**-0.75)'
p93
aS'Stancil et al 1998'
p94
ag5
aa(lp95
I27
aS'D   + H+ ->  D+  + H'
p96
aS'2*(10**-10)*(T_m**0.402)*exp(-37.1/T_m) - 3.31*(10**-17)*(T_m**1.48)'
p97
aS'Savin 2002'
p98
ag5
aa(lp99
I28
aS'D+  + H  ->  D   + H+'
p100
aS'2.06*(10**-10)*(T_m**0.396)*exp(-33.0/T_m) + 2.03*(10**-9)*(T_m**-0.332)'
p101
ag98
ag5
aa(lp102
I29
aS'D   + H  ->  HD  + hv'
p103
aS'(10**-25)*(2.80202-(6.63697*log(T_m))+(4.75619*(log(T_m)**2))-(1.39325*(log(T_m)**3))+(0.178259*(log(T_m)**4))-(0.00817097*(log(T_m)**5)))'
p104
ag17
aS'0-200'
p105
aa(lp106
I30
aS'D   + H2 ->  HD  + H'
p107
aS'9.0*(10**-11)*exp(-3876.0/T_m)'
p108
aS'Galli & Palla 1998'
p109
ag5
aa(lp110
I31
aS'HD+ + H  ->  HD  + H+'
p111
ag20
aS'SLD98'
p112
ag5
aa(lp113
I32
aS'D+  + H2 ->  HD  + H+'
p114
aS'1.0*(10**-9)*(0.417+0.846*log10(T_m)-0.137*(log10(T_m)**2))'
p115
aS'GP02'
p116
ag5
aa(lp117
I33
aS'HD  + H  ->  D   + H2'
p118
aS'3.2*(10**-11)*exp(-3624.0/T_m)'
p119
ag109
ag105
aa(lp120
I34
aS'HD  + H+ ->  D+  + H2'
p121
aS'1.1*(10**-9)*exp(-488.0/T_m)'
p122
aS'Galli & Palla 2002'
p123
ag5
aa(lp124
I35
aS'D   + H+ ->  HD+ + hv'
p125
aS'10**(-19.38-1.523*log(T_m)+1.118*(log(T_m)**2)-0.1269*(log(T_m)**3))'
p126
ag109
ag5
aa(lp127
I36
aS'D+  + H  ->  HD+ + hv'
p128
ag126
ag109
ag5
aa(lp129
I37
aS'HD+ + e- ->  D   + H '
p130
aS'7.2*(10**-8)*(T_m**-0.5)'
p131
ag112
ag5
aa(lp132
I38
aS'D   + e- ->  D-  + hv'
p133
aS'3.0*(10**-16)*(T_m/300.0)**0.95*exp(-T_m/9320.0)'
p134
ag112
ag5
aa(lp135
I39
aS'D+  + D- ->  D   + D'
p136
aS'1.96*(10**-7)*((T_m/300.0)**-0.487)*exp(-T_m/29300.0)'
p137
aS'LSD02'
p138
ag5
aa(lp139
I40
aS'H+  + D- ->  D   + H'
p140
aS'1.61*(10**-7)*((T_m/300.0)**-0.487)*exp(-T_m/29300.0)'
p141
ag138
ag5
aa(lp142
I41
aS'H-  + D  ->  H   + D-'
p143
aS'6.4*(10**-9)*(T_m/300.0)**0.41'
p144
ag112
ag5
aa(lp145
I42
aS'D-  + H  ->  D   + H-'
p146
ag144
ag112
ag5
aa(lp147
I43
aS'D-  + H  ->  HD  + e-'
p148
aS'1.5*(10**-9)*(T_m/300.0)**-0.1'
p149
ag112
ag5
aa(lp150
I44
aS'D   + H- ->  HD  + e-'
p151
ag144
ag112
ag5
aa(lp152
I45
aS'H-  + D+ ->  D   + H'
p153
ag141
ag138
ag5
aa(lp154
I46
aS'He+ + D  ->  D+  + He'
p155
aS'1.1*(10**-15)*((T_m/300.0)**0.25)'
p156
ag17
ag5
aa(lp157
I47
aS'He  + D+ ->  D   + He+'
p158
aS'1.85*(10**-9)*(T_m**-0.75)*exp(-127500.0/T_m)'
p159
ag17
ag5
aa(lp160
I48
aS'HD  + He+->  HD+ + He'
p161
aS'7.2*(10**-15)'
p162
ag17
ag5
aa(lp163
I49
aS'D2  + He+->  D2+ + He'
p164
aS'2.5*(10**-14)'
p165
ag17
ag5
aa(lp166
I50
aS'D2  + He+->  He + D+ + D'
p167
aS'1.1*(10**-13)*((T_m*(10**-3))**-0.24)'
p168
ag17
ag5
aa(lp169
I51
aS'H+  + e- ->  H   + hv'
p170
aS'1.269*(10**-13)*((315614.0/T_m)**1.503)*((1.0+((604625.0/T_m)**0.470))**-1.923)'
p171
ag17
ag5
aa(lp172
I52
aS'H   + hv ->  H+  + e-'
p173
aS'2.41*(10**15)*(T_r**1.5)*exp(-39472.0/T_r)*(8.76*(10**-11))*((1+Z)**-0.58)'
p174
ag58
ag5
aa(lp175
I53
aS'H   + e- ->  H+  + 2e-'
p176
aS'5.85*(10**-11)*(T_m**0.5)*exp(-157809.1/T_m)'
p177
ag79
ag5
aa(lp178
I54
aS'H2  + H2 ->  H2  + H + H'
p179
aS'exp(-54657.4/T_m)*(5.996*(10**-30)*(T_m**4.1881))/((1.0+(6.761*((10**-6)*T_m)))**5.6881)'
p180
aS'Lepp & Shull 1983'
p181
ag5
aa(lp182
I55
aS'He++ + e- -> He+ + hv'
p183
aS'3.36*(10**-10)*(T_m**-0.5)*((T_m/1000.0)**-0.2)*(1.0+(T_m/(10**6))**0.7)**-1'
p184
aS'Cen 1992'
p185
ag5
aa(lp186
I56
aS'He+  + hv -> He++ + e-'
p187
aS'5.0*(10)*(T_r**1.63)*exp(-590000.0/T_r)'
p188
ag109
ag5
aa(lp189
I57
aS'He+  + e- -> He  + hv'
p190
aS'3.925*(10**-13)*(T_m**-0.6353)'
p191
ag4
ag5
aa(lp192
I58
aS'He   + hv -> He+ + e-'
p193
aS'1.0*(10**4)*(T_r**1.23)*exp(-280000.0/T_r)'
p194
ag109
ag5
aa(lp195
I59
aS'He   + H+ -> He+ + H'
p196
aS'1.26*(10**-9)*(T_m**-0.75)*exp(-127500.0/T_m)'
p197
aS'Glover & Jappsen 2007'
p198
ag5
aa(lp199
I60
aS'He+  + H  -> He  + H+'
p200
aS'1.25*(10**-15)*(T_m/300.0)**-0.25'
p201
aS'Zygelman et al 1989'
p202
ag5
aa(lp203
I61
aS'He   + H+ -> HeH+ + hv'
p204
aS'7.6*(10**-18)*(T_m-0.5)'
p205
ag109
ag5
aa(lp206
I62
aS'He + H+ + hv -> HeH+ + hv'
p207
aS'(3.2*(10**-20)*(T_m**1.8))/(((1+0.1*(T_m**2.04))*exp(-T_m/4000.0))*(1+2*(10**-4)*(T_r**1.1)))'
p208
aS'Zygelman et al 1998'
p209
ag5
aa(lp210
I63
aS'He  + H2+ -> HeH+ + H'
p211
aS'3.0*(10**-10)*exp(-6717.0/T_m)'
p212
ag109
ag5
aa(lp213
I64
aS'He+  + H  -> HeH+ + hv'
p214
aS'4.16*(10**-16)*(T_m**-0.37)*exp(-T_m/87600.0)'
p215
ag94
ag5
aa(lp216
I65
aS'HeH+ + H  -> He   + H2+'
p217
aS'0.69*(10**-9)*((T_m/300.0)**0.13)*exp(-T_m/33100.0)'
p218
aS'Linder et al  1995'
p219
ag5
aa(lp220
I66
aS'HeH+ + e- -> He   + H'
p221
aS'3.0*(10**-8)*((T_m/300.0)**-0.47)'
p222
ag94
ag5
aa(lp223
I67
aS'HeH+ + hv -> He   + H+'
p224
aS'0.68*(T_r**1.5)*exp(-22750.0/T_r)'
p225
aS'Jurek et al 1995'
p226
ag5
aa(lp227
I68
aS'HeH+ + hv -> He+  + H'
p228
aS'7.8*(10**3)*(T_r**1.2)*exp(-240000.0/T_r)'
p229
ag109
ag5
aa(lp230
I69
aS'He   + e- -> He+  + 2e-'
p231
aS'exp(-44.09864886 + 23.91596563*log(T_m) - 10.7532302*(log(T_m)**2) + 3.05803875*(log(T_m)**3) - 0.56851189*(log(T_m)**4) + 6.79539123*(10**-2)*(log(T_m)**5) - 5.00905610*(10**-3)*(log(T_m)**6)+2.06723616*(10**-4)*(log(T_m)**7) - 3.64916141*(10**-6)*(log(T_m)**8))'
p232
aS'Abel et al 1997'
p233
ag5
aa(lp234
I70
aS'He+  + e- -> He++ + 2e-'
p235
aS'exp(-68.71040990 + 43.93347633*log(T_m) - 18.4806699*(log(T_m)**2) + 4.70162649*(log(T_m)**3) - 0.76924663*(log(T_m)**4) + 8.113042*0.01*(log(T_m)**5) - 5.32402063*(10**-3)*(log(T_m)**6)+1.97570531*(10**-4)*(log(T_m)**7) - 3.16558106*(10**-6)*(log(T_m)**8))'
p236
ag233
ag5
aa(lp237
I71
aS'Li+  + e- -> Li   + hv'
p238
aS'1.036*(10**-11)*((((T_m/107.7)**0.5)*((1+((T_m/107.7)**0.5))**0.612)*(1+(T_m/(1.177*10**7))**0.5)**1.388)**-1.0)'
p239
aS'Verner & Ferlan 1996'
p240
ag5
aa(lp241
I72
aS'Li   + hv -> Li+  + e-'
p242
aS'1.3*(10**3)*(T_r**1.45)*exp(-60500.0/T_r)'
p243
ag109
ag5
aa(lp244
I73
aS'Li-  + H+ -> Li   + H'
p245
aS'(6.3*(10**-6)*(T_m**-0.5)) - (7.6*(10**-9)) + (2.6*(10**-10)*(T_m**0.5)) + (2.7*(10**-14)*T_m)'
p246
aS'Peart & Hayton 1994'
p247
ag5
aa(lp248
I74
aS'Li   + e- -> Li-  + hv'
p249
aS'6.1*(10**-17)*(T_m**0.58)*exp(-T_m/17200.0)'
p250
aS'Ramsbottom et al 1994'
p251
ag5
aa(lp252
I75
aS'Li-  + hv -> Li   + e-'
p253
aS'1.8*(10**2)*(T_r**1.4)*exp(-8100.0/T_r)'
p254
ag251
ag5
aa(lp255
I76
aS'Li   + H  -> LiH  + hv'
p256
aS'((5.6*(10**19)*(T_m**-0.15))+(7.2*(10**15)*(T_m**1.21)))**-1'
p257
aS'Dalgarno et al 1996'
p258
ag5
aa(lp259
I77
aS'LiH  + hv -> Li   + H'
p260
aS'8.3*(10**4)*(T_r**0.3)*exp(-29000.0/T_r)'
p261
ag109
ag5
aa(lp262
I78
aS'Li-  + H  -> LiH  + e-'
p263
aS'4.0*(10**-10)'
p264
aS'Stancil et al 1996'
p265
ag5
aa(lp266
I79
aS'LiH  + H  -> Li   + H2'
p267
aS'2.0*(10**-11)'
p268
ag265
ag5
aa(lp269
I80
aS'Li+  + H  -> LiH+ + hv'
p270
aS'10**(-22.4+(0.999*log10(T_m))-(0.351*((log10(T_m))**2)))'
p271
ag258
ag5
aa(lp272
I81
aS'Li   + H+ -> LiH+ + hv'
p273
aS'4.8*(10**-14)*(T_m**-0.49)'
p274
ag258
ag5
aa(lp275
I82
aS'LiH+ + e- -> Li   + H'
p276
aS'3.8*(10**-7)*(T_m**-0.47)'
p277
ag265
ag5
aa(lp278
I83
aS'LiH+ + H  -> Li+  + H2'
p279
aS'3.0*(10**-10)'
p280
ag265
ag5
aa(lp281
I84
aS'LiH+ + hv -> Li+  + H'
p282
aS'7.0*(10**2)*exp(-1900.0/T_r)'
p283
ag258
ag5
aa(lp284
I85
aS'H-  + H2+ -> 2H   + H'
p285
ag54
aS'Glover & Abell 2008'
p286
ag5
aa(lp287
I86
aS'H2  + He+ -> He + H + H+'
p288
aS'3.7*(10**-14)*exp(35.0/T_m)'
p289
ag17
ag5
aa(lp290
I87
aS'H2  + He+ -> H2+  + He'
p291
ag162
ag17
ag5
aa(lp292
I88
aS'He+ + H-  -> He   + H  '
p293
aS'2.32*(10**-7)*((T_m/300.0)**-0.52)*exp(T_m/22400.0)'
p294
ag17
ag5
aa(lp295
I89
aS'He  + H-  -> He + H + e-'
p296
aS'4.1*(10**-17)*(T_m**2)*exp(-19870.0/T_m)'
p297
ag17
ag5
aa(lp298
I90
aS'H2D+ + e- -> H + H + D'
p299
aS'0.73*1.0*(10**-6)*(T_m**-0.5)'
p300
ag109
ag5
aa(lp301
I91
aS'H2D+ + e- -> H2  + D'
p302
aS'0.07*1.0*(10**-6)*(T_m**-0.5)'
p303
ag109
ag5
aa(lp304
I92
aS'H2D+ + e- -> HD  + H'
p305
aS'0.20*1.0*(10**-6)*(T_m**-0.5)'
p306
ag109
ag5
aa(lp307
I93
aS'HD+  + H2 -> H2D+ + H'
p308
aS'2.0*(10**-9)'
p309
ag109
ag5
aa(lp310
I94
aS'D   + hv ->  D+  + e-'
p311
aS'2.41*(10**15)*(T_r**1.5)*exp(-39472/T_r)*(8.76*(10**-11))*((1+Z)**-0.58)'
p312
aS'Currently unknown '
p313
ag5
aa.