(lp0
(lp1
I0
aS'H   + hv -> H+   + e-'
p2
aS'((6.30*(10**-18))*(((3.28846551*(10**15))/v)**4.0)*((exp(4-(4*atan((((v/(3.28846551*(10**15)))-1)**0.5))/(((v/(3.28846551*(10**15)))-1)**0.5))))/(1-exp((-2*pi)/(((v/(3.28846551*(10**15)))-1)**0.5)))))'
p3
aS'Abel et al 1997'
p4
aS'all frequencies'
p5
aa(lp6
I1
aS'He+ + hv -> He++ + e-'
p7
ag3
ag4
ag5
aa(lp8
I2
aS'He +  hv -> He+  + e-'
p9
aS'7.42*(10**-18)*(((1.66*(v/(24.6/(4.13566*(10**-15))))**-2.05))-(0.66*((v/(24.6/(4.13566*(10**-15))))**-3.05)))'
p10
ag4
aS'v > 5.94825*10**15'
p11
aa(lp12
I3
aS'H- +  hv -> H    + e-'
p13
aS'7.928*(10**5)*((v-(0.755/(4.13566*(10**-15))))**1.5)*(v**-3)'
p14
ag4
aS'v > 1.8255*10**14'
p15
aa(lp16
I4
aS'D +  hv -> D+  + e-'
p17
ag3
ag4
ag5
aa(lp18
I5
aS'H2 +  hv -> H2+  + e-'
p19
aS'6.2*(10**-18)*((4.135667516*(10**-15))*v)-(9.4*(10**-17))'
p20
aS'Abel et al 1996'
p21
aS'15.42 < hv < 16.50'
p22
aa(lp23
I6
ag19
aS'1.4*(10**-18)*((4.135667516*(10**-15))*v)-(1.48*(10**-17))'
p24
ag21
aS'16.50 < hv < 17.70'
p25
aa(lp26
I7
ag19
aS'2.5*(10**-14)*(((4.135667516*(10**-15))*v)**-2.71)'
p27
ag21
aS'hv > 17.7 eV'
p28
aa(lp29
I8
aS'H2+ + hv -> H    + H+'
p30
aS'10**((-1.6547717*(10**6))+(1.866033*(10**5)*log(v))-(7.8986431*(10**3)*(log(v)**2))+(148.73693*(log(v)**3))-(1.0513032*(log(v)**4)))'
p31
ag21
aS'valid for all frequency'
p32
aa(lp33
I9
aS'H2+ + hv -> 2H+  + e-'
p34
aS'10**((-16.926)-((4.528*(10**-2))*((4.135667516*(10**-15))*v))+(2.238*(10**-4)*(((4.135667516*(10**-15))*v)**2))+(4.425*(10**-7)*(((4.135667516*(10**-15))*v)**3)))'
p35
ag21
aS'30<hv<90eV'
p36
aa(lp37
I10
aS'H2  + hv -> H2* -> H + H'
p38
aS'1.1*(10**8)'
p39
ag21
aS'neglecting selfshielding'
p40
aa(lp41
I11
aS'H2  + hv -> H + H'
p42
aS'0.0'
p43
ag4
aS'10-10000'
p44
aa.