cnumpy.core.multiarray
_reconstruct
p0
(cnumpy
ndarray
p1
(I0
tp2
S'b'
p3
tp4
Rp5
(I1
(I42
tp6
cnumpy
dtype
p7
(S'O8'
p8
I0
I1
tp9
Rp10
(I3
S'|'
p11
NNNI-1
I-1
I63
tp12
bI00
(lp13
(lp14
I51
aS'H+  +  e- -> H  +  hv'
p15
aS'[H+]'
p16
aS'[e-]'
p17
aS''
p18
aS'[H]'
p19
aS'[hv]'
p20
ag18
aS'k[0](Z)'
p21
aS'lambda Z: (8.76*(10**-11))*((1.0+Z)**-0.58)'
p22
aS'Galli & Palla 1998'
p23
aS'0-8000'
p24
aa(lp25
I52
ag15
ag19
ag20
ag18
ag16
ag17
ag18
aS'k[1](y[7],Z)'
p26
aS'lambda T_r,Z: ((2.41*(10**+15)*(T_r**1.5)*exp(-179472/T_r))*((8.76*(10**-11))*((1.0+Z)**-0.58)))'
p27
aS'Galli & Palla 19980-8000'
p28
aa(lp29
I1
ag15
ag19
ag17
ag18
aS'[H-]'
p30
ag20
ag18
aS'k[2](y[8])'
p31
aS'lambda T_m: 1.4*(10**-18)*(T_m**0.928)*exp(-T_m/16200.0)'
p32
ag23
ag24
aa(lp33
I16
ag15
ag30
ag20
ag18
ag19
ag17
ag18
aS'k[3](y[7])'
p34
aS'lambda T_r: 0.11*(T_r**2.13)*exp(-8823.0/T_r)'
p35
ag23
ag24
aa(lp36
I2
ag15
ag30
ag19
ag18
aS'[H2]'
p37
ag17
ag18
aS'k[4](y[8])'
p38
aS'lambda T_m: 4.0*(10**-9)*(T_m**-0.17) if T_m > 300 else (1.5*10**-9)'
p39
ag23
ag24
aa(lp40
I12
ag15
ag30
ag16
ag18
aS'[H2+]'
p41
ag17
ag18
aS'k[5](y[8])'
p42
aS'lambda T_m: 6.9*(10**-9)*(T_m**-0.35) if T_m < 8000 else 9.6*(10**-7)*(T_m**-0.9)'
p43
aS'Glover & Abel 2008'
p44
ag24
aa(lp45
I11
ag15
ag30
ag16
ag18
ag19
ag19
ag18
aS'k[6](y[8])'
p46
aS'lambda T_m: (5.7*(10**-6)*(T_m**-0.5))+(6.3*(10**-8))-(9.2*(10**-11)*(T_m**0.5))+(4.4*(10**-13)*T_m)'
p47
ag23
ag24
aa(lp48
I3
ag15
ag16
ag19
ag18
ag41
ag20
ag18
aS'k[7](y[8])'
p49
aS'lambda T_m: 10**(-19.38-(1.523*log10(T_m))+(1.118*((log10(T_m))**2))-(0.1269*((log10(T_m))**3)))'
p50
ag23
ag24
aa(lp51
I17
ag15
ag41
ag20
ag18
ag19
ag16
ag18
aS'k[8](y[7])'
p52
aS'lambda T_r: 2.0*10*(T_r**1.59)*exp(-82000.0/T_r)'
p53
ag23
ag24
aa(lp54
I4
ag15
ag41
ag19
ag18
ag37
ag16
ag18
aS'k[9](y[8])'
p55
aS'lambda T_m: 6.4*(10**-10)'
p56
ag23
ag24
aa(lp57
I13
ag15
ag41
ag17
ag18
ag19
ag19
ag18
aS'k[10](y[8])'
p58
aS'lambda T_m: 2.0*(10**-7)*(T_m**-0.5)'
p59
ag44
ag24
aa(lp60
I19
ag15
ag41
ag20
ag18
ag16
ag16
ag17
aS'k[11](y[7])'
p61
aS'lambda T_r: 90*(T_r**1.48)*(exp(-335000.0/T_r))'
p62
aS'Galli D & Palla 1998'
p63
ag24
aa(lp64
I15
ag15
ag37
ag17
ag18
ag19
ag30
ag18
aS'k[12](y[8])'
p65
aS'lambda T_m: 2.7*(10**-8)*(T_m**-1.27)*exp(-43000.0/T_m)'
p66
aS'Capitelli, M., Coppola, C. M., Diomede, P., & Longo, S. 2007'
p67
ag24
aa(lp68
I7
ag15
ag37
ag17
ag18
ag19
ag19
ag17
aS'k[13](y[8])'
p69
aS'lambda T_m: 4.4*(10**-10)*(T_m**0.35)*exp(-102000.0/T_m)'
p70
aS'Trevian, C.S & Tennyson J.2002'
p71
ag24
aa(lp72
I18
ag15
ag37
ag20
ag18
ag41
ag17
ag18
aS'k[14](y[7])'
p73
aS'lambda T_r: 2.9*(10**2)*(T_r**1.56)*exp(-178500.0/T_r)'
p74
ag63
ag24
aa(lp75
I6
ag15
ag37
ag16
ag18
ag41
ag19
ag18
aS'k[15](y[8])'
p76
aS'lambda T_m: 3.0*(10**-10)*exp(-21050.0/T_m)'
p77
ag23
ag24
aa(lp78
I26
ag15
aS'[D+]'
p79
ag17
ag18
aS'[D]'
p80
ag20
ag18
aS'k[16](Z)'
p81
aS'lambda Z: (8.76*(10**-11))*((1+Z)**-0.58)'
p82
ag23
ag24
aa(lp83
I94
ag15
ag80
ag20
ag18
ag79
ag17
ag18
aS'k[17](y[7],Z)'
p84
aS'lambda T_r, Z: 2.41*(10**15)*(T_r**1.5)*exp(-179472.0/T_r)*(8.76*(10**-11))*((1+Z)**-0.58)'
p85
ag23
ag24
aa(lp86
I27
ag15
ag80
ag16
ag18
ag79
ag19
ag18
aS'k[18](y[8])'
p87
aS'lambda T_m: 3.7*(10**-10)*(T_m**0.28)*exp(-43.0/T_m)'
p88
ag23
ag24
aa(lp89
I28
ag15
ag79
ag19
ag18
ag80
ag16
ag18
aS'k[19](y[8])'
p90
aS'lambda T_m: 3.7*(10**-10)*(T_m**0.28)'
p91
ag23
ag24
aa(lp92
I29
ag15
ag80
ag19
ag18
aS'[HD]'
p93
ag20
ag18
aS'k[20](y[8])'
p94
aS'lambda T_m: (10**-25)*(2.80202-(6.63697*log(T_m))+(4.75619*(log(T_m)**2))-(1.39325*(log(T_m)**3))+(0.178259*(log(T_m)**4))-(0.00817097*(log(T_m)**5)))'
p95
ag44
ag24
aa(lp96
I30
ag15
ag80
ag37
ag18
ag93
ag19
ag18
aS'k[21](y[8])'
p97
aS'lambda T_m: 9.0*(10**-11)*exp(-3876.0/T_m)'
p98
ag23
ag24
aa(lp99
I31
ag15
aS'[HD+]'
p100
ag19
ag18
ag93
ag16
ag18
aS'k[22](y[8])'
p101
ag56
aS'SLD98'
p102
ag24
aa(lp103
I32
ag15
ag79
ag37
ag18
ag93
ag16
ag18
aS'k[23](y[8])'
p104
aS'lambda T_m: 2.1*(10**-9)'
p105
ag23
ag24
aa(lp106
I34
ag15
ag93
ag16
ag18
ag79
ag37
ag18
aS'k[24](y[8])'
p107
aS'lambda T_m: 1.0*(10**-9)*exp(-464.0/T_m)'
p108
ag63
ag24
aa(lp109
I71
ag15
aS'[Li+]'
p110
ag17
ag18
aS'[Li]'
p111
aS'hv'
p112
ag18
aS'k[25](y[8])'
p113
aS'lambda T_m: 1.036*(10**-11)*((((T_m/107.7)**0.5)*((1+((T_m/107.7)**0.5))**0.612)*(1+(T_m/(1.177*10**7))**0.5)**1.388)**-1.0)'
p114
ag23
ag24
aa(lp115
I72
ag15
ag111
ag20
ag18
ag110
ag17
ag18
aS'k[26](y[7])'
p116
aS'lambda T_r: 1.3*(10**3)*(T_r**1.45)*exp(-60500.0/T_r)'
p117
ag23
ag24
aa(lp118
I73
ag15
aS'[Li-]'
p119
ag16
ag18
ag111
ag19
ag18
aS'k[27](y[8])'
p120
aS'lambda T_m: (6.3*(10**-6)*(T_m**-0.5)) - (7.6*(10**-9)) + (2.6*(10**-10)*(T_m**0.5)) + (2.7*(10**-14)*T_m)'
p121
ag23
ag24
aa(lp122
I74
ag15
ag111
ag17
ag18
ag119
ag20
ag18
aS'k[28](y[8])'
p123
aS'lambda T_m: 6.1*(10**-17)*(T_m**0.58)*exp(-T_m/17200.0)'
p124
ag23
ag24
aa(lp125
I75
ag15
ag119
ag20
ag18
ag111
ag17
ag18
aS'k[29](y[7])'
p126
aS'lambda T_r: 1.8*(10**2)*(T_r**1.4)*exp(-8100.0/T_r)'
p127
ag23
ag24
aa(lp128
I76
ag15
ag111
ag19
ag18
aS'[LiH]'
p129
ag20
ag18
aS'k[30](y[8])'
p130
aS'lambda T_m: ((5.6*(10**19)*(T_m**-0.15))+(7.2*(10**15)*(T_m**1.21)))**-1'
p131
ag23
ag24
aa(lp132
I77
ag15
ag129
ag20
ag18
ag111
ag19
ag18
aS'k[31](y[7])'
p133
aS'lambda T_r: 8.3*(10**4)*(T_r**0.3)*exp(-29000.0/T_r)'
p134
ag23
ag24
aa(lp135
I78
ag15
ag119
ag19
ag18
ag129
ag17
ag18
aS'k[32](y[8])'
p136
aS'lambda T_m: 4.0*(10**-10)'
p137
ag23
ag24
aa(lp138
I79
ag15
ag129
ag19
ag18
ag111
ag37
ag18
aS'k[33](y[8])'
p139
aS'lambda T_m: 2.0*(10**-11)'
p140
ag23
ag24
aa(lp141
I80
ag15
ag110
ag19
ag18
aS'[LiH+]'
p142
ag20
ag18
aS'k[34](y[8])'
p143
aS'lambda T_m: 10**(-22.4+(0.999*log10(T_m))-(0.351*((log10(T_m))**2)))'
p144
ag23
ag24
aa(lp145
I81
ag15
ag111
ag16
ag18
ag142
ag20
ag18
aS'k[35](y[8])'
p146
aS'lambda T_m: 4.8*(10**-14)*(T_m**-0.49)'
p147
ag23
ag24
aa(lp148
I82
ag15
ag142
ag17
ag18
ag111
ag19
ag18
aS'k[36](y[8])'
p149
aS'lambda T_m: 3.8*(10**-7)*(T_m**-0.47)'
p150
ag23
ag24
aa(lp151
I83
ag15
ag142
ag19
ag18
ag110
ag37
ag18
aS'k[37](y[8])'
p152
aS'lambda T_m: 3.0*(10**-10)'
p153
ag23
ag24
aa(lp154
I84
ag15
ag142
ag20
ag18
ag110
ag19
ag18
aS'k[38](y[7])'
p155
aS'lambda T_r: 7.0*(10**2)*exp(-1900.0/T_r)'
p156
ag23
ag24
aa(lp157
I61
ag15
aS'[He]'
p158
ag16
ag18
aS'[HeH+]'
p159
ag20
ag18
aS'k[39](y[8])'
p160
aS'lambda T_m: 7.6*(10**-18)*(T_m-0.5)'
p161
ag23
ag24
aa(lp162
I65
ag15
ag159
ag19
ag18
ag158
ag41
ag18
aS'k[40](y[8])'
p163
aS'lambda T_m: 9.1*(10**-10)'
p164
ag23
ag24
aa(lp165
I67
ag15
ag159
ag20
ag18
ag158
ag16
ag18
aS'k[41](y[7])'
p166
aS'lambda T_r: 0.68*(T_r**1.5)*exp(-22750.0/T_r)'
p167
ag23
ag24
aatp168
b.